target datalayout = "e-m:e-p270:32:32-p271:32:32-p272:64:64-i64:64-i128:128-f80:128-n8:16:32:64-S128"
target triple = "x86_64-pc-linux-gnu"

%"struct.std::__detail::_Hash_node_base" = type { ptr }
%"struct.std::__detail::_Prime_rehash_policy" = type { float, i64 }
%"class.WasmEdge::LLVM::Context" = type { ptr }
%"class.WasmEdge::LLVM::Message" = type { ptr }
%"struct.WasmEdge::LLVM::Compiler::CompileContext" = type { %"class.WasmEdge::LLVM::Context", ptr, %"class.WasmEdge::LLVM::Attribute", %"class.WasmEdge::LLVM::Attribute", %"class.WasmEdge::LLVM::Attribute", %"class.WasmEdge::LLVM::Attribute", %"class.WasmEdge::LLVM::Attribute", %"class.WasmEdge::LLVM::Attribute", %"class.WasmEdge::LLVM::Attribute", %"class.WasmEdge::LLVM::Attribute", %"class.WasmEdge::LLVM::Type", %"class.WasmEdge::LLVM::Type", %"class.WasmEdge::LLVM::Type", %"class.WasmEdge::LLVM::Type", %"class.WasmEdge::LLVM::Type", %"class.WasmEdge::LLVM::Type", %"class.WasmEdge::LLVM::Type", %"class.WasmEdge::LLVM::Type", %"class.WasmEdge::LLVM::Type", %"class.WasmEdge::LLVM::Type", %"class.WasmEdge::LLVM::Type", %"class.WasmEdge::LLVM::Type", %"class.WasmEdge::LLVM::Type", %"class.WasmEdge::LLVM::Type", %"class.WasmEdge::LLVM::Type", %"class.WasmEdge::LLVM::Type", %"class.WasmEdge::LLVM::Type", %"class.WasmEdge::LLVM::Type", %"class.WasmEdge::LLVM::Type", %"class.WasmEdge::LLVM::Type", %"class.WasmEdge::LLVM::Type", %"class.WasmEdge::LLVM::Type", %"class.WasmEdge::LLVM::Type", %"class.WasmEdge::LLVM::Message", i8, i8, i8, i8, %"class.std::vector.84", %"class.std::vector.89", %"class.std::vector.94", %"class.std::vector.99", %"class.WasmEdge::LLVM::Value", %"struct.WasmEdge::LLVM::FunctionCallee" }
%"class.WasmEdge::LLVM::Attribute" = type { ptr }
%"class.WasmEdge::LLVM::Type" = type { ptr }
%"class.std::vector.84" = type { %"struct.std::_Vector_base.85" }
%"struct.std::_Vector_base.85" = type { %"struct.std::_Vector_base<const WasmEdge::AST::FunctionType *, std::allocator<const WasmEdge::AST::FunctionType *>>::_Vector_impl" }
%"struct.std::_Vector_base<const WasmEdge::AST::FunctionType *, std::allocator<const WasmEdge::AST::FunctionType *>>::_Vector_impl" = type { %"struct.std::_Vector_base<const WasmEdge::AST::FunctionType *, std::allocator<const WasmEdge::AST::FunctionType *>>::_Vector_impl_data" }
%"struct.std::_Vector_base<const WasmEdge::AST::FunctionType *, std::allocator<const WasmEdge::AST::FunctionType *>>::_Vector_impl_data" = type { ptr, ptr, ptr }
%"class.std::vector.89" = type { %"struct.std::_Vector_base.90" }
%"struct.std::_Vector_base.90" = type { %"struct.std::_Vector_base<WasmEdge::LLVM::Value, std::allocator<WasmEdge::LLVM::Value>>::_Vector_impl" }
%"struct.std::_Vector_base<WasmEdge::LLVM::Value, std::allocator<WasmEdge::LLVM::Value>>::_Vector_impl" = type { %"struct.std::_Vector_base<WasmEdge::LLVM::Value, std::allocator<WasmEdge::LLVM::Value>>::_Vector_impl_data" }
%"struct.std::_Vector_base<WasmEdge::LLVM::Value, std::allocator<WasmEdge::LLVM::Value>>::_Vector_impl_data" = type { ptr, ptr, ptr }
%"class.std::vector.94" = type { %"struct.std::_Vector_base.95" }
%"struct.std::_Vector_base.95" = type { %"struct.std::_Vector_base<std::tuple<unsigned int, WasmEdge::LLVM::FunctionCallee, const WasmEdge::AST::CodeSegment *>, std::allocator<std::tuple<unsigned int, WasmEdge::LLVM::FunctionCallee, const WasmEdge::AST::CodeSegment *>>>::_Vector_impl" }
%"struct.std::_Vector_base<std::tuple<unsigned int, WasmEdge::LLVM::FunctionCallee, const WasmEdge::AST::CodeSegment *>, std::allocator<std::tuple<unsigned int, WasmEdge::LLVM::FunctionCallee, const WasmEdge::AST::CodeSegment *>>>::_Vector_impl" = type { %"struct.std::_Vector_base<std::tuple<unsigned int, WasmEdge::LLVM::FunctionCallee, const WasmEdge::AST::CodeSegment *>, std::allocator<std::tuple<unsigned int, WasmEdge::LLVM::FunctionCallee, const WasmEdge::AST::CodeSegment *>>>::_Vector_impl_data" }
%"struct.std::_Vector_base<std::tuple<unsigned int, WasmEdge::LLVM::FunctionCallee, const WasmEdge::AST::CodeSegment *>, std::allocator<std::tuple<unsigned int, WasmEdge::LLVM::FunctionCallee, const WasmEdge::AST::CodeSegment *>>>::_Vector_impl_data" = type { ptr, ptr, ptr }
%"class.std::vector.99" = type { %"struct.std::_Vector_base.100" }
%"struct.std::_Vector_base.100" = type { %"struct.std::_Vector_base<WasmEdge::LLVM::Type, std::allocator<WasmEdge::LLVM::Type>>::_Vector_impl" }
%"struct.std::_Vector_base<WasmEdge::LLVM::Type, std::allocator<WasmEdge::LLVM::Type>>::_Vector_impl" = type { %"struct.std::_Vector_base<WasmEdge::LLVM::Type, std::allocator<WasmEdge::LLVM::Type>>::_Vector_impl_data" }
%"struct.std::_Vector_base<WasmEdge::LLVM::Type, std::allocator<WasmEdge::LLVM::Type>>::_Vector_impl_data" = type { ptr, ptr, ptr }
%"class.WasmEdge::LLVM::Value" = type { ptr }
%"struct.WasmEdge::LLVM::FunctionCallee" = type { %"class.WasmEdge::LLVM::Type", %"class.WasmEdge::LLVM::Value" }
%"class.WasmEdge::LLVM::Builder" = type { ptr }
%"class.(anonymous namespace)::FunctionCompiler" = type { ptr, %"class.WasmEdge::LLVM::Context", %"class.std::vector.170", %"class.std::vector.89", %"class.WasmEdge::LLVM::Value", %"class.WasmEdge::LLVM::Value", %"class.std::unordered_map", i8, i8, %"class.std::vector.194", %"struct.WasmEdge::LLVM::FunctionCallee", %"class.WasmEdge::LLVM::Value", %"class.WasmEdge::LLVM::Builder" }
%"class.std::vector.170" = type { %"struct.std::_Vector_base.171" }
%"struct.std::_Vector_base.171" = type { %"struct.std::_Vector_base<std::pair<WasmEdge::LLVM::Type, WasmEdge::LLVM::Value>, std::allocator<std::pair<WasmEdge::LLVM::Type, WasmEdge::LLVM::Value>>>::_Vector_impl" }
%"struct.std::_Vector_base<std::pair<WasmEdge::LLVM::Type, WasmEdge::LLVM::Value>, std::allocator<std::pair<WasmEdge::LLVM::Type, WasmEdge::LLVM::Value>>>::_Vector_impl" = type { %"struct.std::_Vector_base<std::pair<WasmEdge::LLVM::Type, WasmEdge::LLVM::Value>, std::allocator<std::pair<WasmEdge::LLVM::Type, WasmEdge::LLVM::Value>>>::_Vector_impl_data" }
%"struct.std::_Vector_base<std::pair<WasmEdge::LLVM::Type, WasmEdge::LLVM::Value>, std::allocator<std::pair<WasmEdge::LLVM::Type, WasmEdge::LLVM::Value>>>::_Vector_impl_data" = type { ptr, ptr, ptr }
%"class.std::unordered_map" = type { %"class.std::_Hashtable.175" }
%"class.std::_Hashtable.175" = type { ptr, i64, %"struct.std::__detail::_Hash_node_base", i64, %"struct.std::__detail::_Prime_rehash_policy", ptr }
%"class.std::vector.194" = type { %"struct.std::_Vector_base.195" }
%"struct.std::_Vector_base.195" = type { %"struct.std::_Vector_base<(anonymous namespace)::FunctionCompiler::Control, std::allocator<(anonymous namespace)::FunctionCompiler::Control>>::_Vector_impl" }
%"struct.std::_Vector_base<(anonymous namespace)::FunctionCompiler::Control, std::allocator<(anonymous namespace)::FunctionCompiler::Control>>::_Vector_impl" = type { %"struct.std::_Vector_base<(anonymous namespace)::FunctionCompiler::Control, std::allocator<(anonymous namespace)::FunctionCompiler::Control>>::_Vector_impl_data" }
%"struct.std::_Vector_base<(anonymous namespace)::FunctionCompiler::Control, std::allocator<(anonymous namespace)::FunctionCompiler::Control>>::_Vector_impl_data" = type { ptr, ptr, ptr }

@.str.11 = private unnamed_addr constant [1 x i8] zeroinitializer, align 1

; Function Attrs: mustprogress nounwind uwtable
define linkonce_odr hidden void @_ZN8WasmEdge4LLVM4TypeC2EP14LLVMOpaqueType(ptr noundef nonnull align 8 dereferenceable(8) %0, ptr noundef %1) unnamed_addr #0 comdat align 2 {
  %3 = alloca ptr, align 8
  %4 = alloca ptr, align 8
  store ptr %0, ptr %3, align 8
  store ptr %1, ptr %4, align 8
  %5 = load ptr, ptr %3, align 8
  %6 = getelementptr inbounds %"class.WasmEdge::LLVM::Type", ptr %5, i32 0, i32 0
  %7 = load ptr, ptr %4, align 8
  store ptr %7, ptr %6, align 8
  ret void
}

; Function Attrs: mustprogress nounwind uwtable
define linkonce_odr hidden void @_ZN8WasmEdge4LLVM5Value11getConstIntENS0_4TypeEyb(ptr dead_on_unwind noalias writable sret(%"class.WasmEdge::LLVM::Value") align 8 %0, ptr noundef %1, i64 noundef %2, i1 noundef zeroext %3) #0 comdat align 2 {
  %5 = alloca ptr, align 8
  %6 = alloca ptr, align 8
  %7 = alloca i64, align 8
  %8 = alloca i8, align 1
  store ptr %0, ptr %5, align 8
  store ptr %1, ptr %6, align 8
  store i64 %2, ptr %7, align 8
  %9 = zext i1 %3 to i8
  store i8 %9, ptr %8, align 1
  %10 = call noundef nonnull align 8 dereferenceable(8) ptr @_ZN8WasmEdge4LLVM4Type6unwrapEv(ptr noundef nonnull align 8 dereferenceable(8) %1) #12
  %11 = load ptr, ptr %10, align 8
  %12 = load i64, ptr %7, align 8
  %13 = load i8, ptr %8, align 1
  %14 = trunc i8 %13 to i1
  %15 = zext i1 %14 to i32
  %16 = call ptr @LLVMConstInt(ptr noundef %11, i64 noundef %12, i32 noundef %15)
  call void @_ZN8WasmEdge4LLVM5ValueC2EP15LLVMOpaqueValue(ptr noundef nonnull align 8 dereferenceable(8) %0, ptr noundef %16) #12
  ret void
}

; Function Attrs: mustprogress nounwind uwtable
define linkonce_odr hidden void @_ZN8WasmEdge4LLVM7Context10getInt64TyEv(ptr dead_on_unwind noalias writable sret(%"class.WasmEdge::LLVM::Type") align 8 %0, ptr noundef nonnull align 8 dereferenceable(8) %1) #0 comdat align 2 {
  %3 = alloca ptr, align 8
  %4 = alloca ptr, align 8
  store ptr %0, ptr %3, align 8
  store ptr %1, ptr %4, align 8
  %5 = load ptr, ptr %4, align 8
  %6 = getelementptr inbounds %"class.WasmEdge::LLVM::Context", ptr %5, i32 0, i32 0
  %7 = load ptr, ptr %6, align 8
  %8 = call ptr @LLVMInt64TypeInContext(ptr noundef %7)
  call void @_ZN8WasmEdge4LLVM4TypeC2EP14LLVMOpaqueType(ptr noundef nonnull align 8 dereferenceable(8) %0, ptr noundef %8) #12
  ret void
}

; Function Attrs: mustprogress nounwind uwtable
define linkonce_odr hidden void @_ZN8WasmEdge4LLVM5ValueC2EP15LLVMOpaqueValue(ptr noundef nonnull align 8 dereferenceable(8) %0, ptr noundef %1) unnamed_addr #0 comdat align 2 {
  %3 = alloca ptr, align 8
  %4 = alloca ptr, align 8
  store ptr %0, ptr %3, align 8
  store ptr %1, ptr %4, align 8
  %5 = load ptr, ptr %3, align 8
  %6 = getelementptr inbounds %"class.WasmEdge::LLVM::Value", ptr %5, i32 0, i32 0
  %7 = load ptr, ptr %4, align 8
  store ptr %7, ptr %6, align 8
  ret void
}

; Function Attrs: mustprogress nounwind uwtable
define linkonce_odr hidden noundef nonnull align 8 dereferenceable(8) ptr @_ZN8WasmEdge4LLVM5Value6unwrapEv(ptr noundef nonnull align 8 dereferenceable(8) %0) #0 comdat align 2 {
  %2 = alloca ptr, align 8
  store ptr %0, ptr %2, align 8
  %3 = load ptr, ptr %2, align 8
  %4 = getelementptr inbounds %"class.WasmEdge::LLVM::Value", ptr %3, i32 0, i32 0
  ret ptr %4
}

; Function Attrs: mustprogress nounwind uwtable
define linkonce_odr hidden noundef nonnull align 8 dereferenceable(8) ptr @_ZN8WasmEdge4LLVM4Type6unwrapEv(ptr noundef nonnull align 8 dereferenceable(8) %0) #0 comdat align 2 {
  %2 = alloca ptr, align 8
  store ptr %0, ptr %2, align 8
  %3 = load ptr, ptr %2, align 8
  %4 = getelementptr inbounds %"class.WasmEdge::LLVM::Type", ptr %3, i32 0, i32 0
  ret ptr %4
}

; Function Attrs: mustprogress nounwind uwtable
define linkonce_odr hidden void @_ZN8WasmEdge4LLVM7Builder18createExtractValueENS0_5ValueEjPKc(ptr dead_on_unwind noalias writable sret(%"class.WasmEdge::LLVM::Value") align 8 %0, ptr noundef nonnull align 8 dereferenceable(8) %1, ptr noundef %2, i32 noundef %3, ptr noundef %4) #0 comdat align 2 {
  %6 = alloca ptr, align 8
  %7 = alloca ptr, align 8
  %8 = alloca ptr, align 8
  %9 = alloca i32, align 4
  %10 = alloca ptr, align 8
  store ptr %0, ptr %6, align 8
  store ptr %1, ptr %7, align 8
  store ptr %2, ptr %8, align 8
  store i32 %3, ptr %9, align 4
  store ptr %4, ptr %10, align 8
  %11 = load ptr, ptr %7, align 8
  %12 = getelementptr inbounds %"class.WasmEdge::LLVM::Builder", ptr %11, i32 0, i32 0
  %13 = load ptr, ptr %12, align 8
  %14 = call noundef nonnull align 8 dereferenceable(8) ptr @_ZN8WasmEdge4LLVM5Value6unwrapEv(ptr noundef nonnull align 8 dereferenceable(8) %2) #12
  %15 = load ptr, ptr %14, align 8
  %16 = load i32, ptr %9, align 4
  %17 = load ptr, ptr %10, align 8
  %18 = call ptr @LLVMBuildExtractValue(ptr noundef %13, ptr noundef %15, i32 noundef %16, ptr noundef %17)
  call void @_ZN8WasmEdge4LLVM5ValueC2EP15LLVMOpaqueValue(ptr noundef nonnull align 8 dereferenceable(8) %0, ptr noundef %18) #12
  ret void
}

; Function Attrs: mustprogress nounwind uwtable
define linkonce_odr hidden void @_ZN8WasmEdge4LLVM7Builder11createStoreENS0_5ValueES2_b(ptr dead_on_unwind noalias writable sret(%"class.WasmEdge::LLVM::Value") align 8 %0, ptr noundef nonnull align 8 dereferenceable(8) %1, ptr noundef %2, ptr noundef %3, i1 noundef zeroext %4) #0 comdat align 2 {
  %6 = alloca ptr, align 8
  %7 = alloca ptr, align 8
  %8 = alloca ptr, align 8
  %9 = alloca ptr, align 8
  %10 = alloca i8, align 1
  %11 = alloca ptr, align 8
  store ptr %0, ptr %6, align 8
  store ptr %1, ptr %7, align 8
  store ptr %2, ptr %8, align 8
  store ptr %3, ptr %9, align 8
  %12 = zext i1 %4 to i8
  store i8 %12, ptr %10, align 1
  %13 = load ptr, ptr %7, align 8
  %14 = getelementptr inbounds %"class.WasmEdge::LLVM::Builder", ptr %13, i32 0, i32 0
  %15 = load ptr, ptr %14, align 8
  %16 = call noundef nonnull align 8 dereferenceable(8) ptr @_ZN8WasmEdge4LLVM5Value6unwrapEv(ptr noundef nonnull align 8 dereferenceable(8) %2) #12
  %17 = load ptr, ptr %16, align 8
  %18 = call noundef nonnull align 8 dereferenceable(8) ptr @_ZN8WasmEdge4LLVM5Value6unwrapEv(ptr noundef nonnull align 8 dereferenceable(8) %3) #12
  %19 = load ptr, ptr %18, align 8
  %20 = call ptr @LLVMBuildStore(ptr noundef %15, ptr noundef %17, ptr noundef %19)
  store ptr %20, ptr %11, align 8
  %21 = load i8, ptr %10, align 1
  %22 = trunc i8 %21 to i1
  br i1 %22, label %23, label %25

23:                                               ; preds = %5
  %24 = load ptr, ptr %11, align 8
  call void @LLVMSetVolatile(ptr noundef %24, i32 noundef 1)
  br label %25

25:                                               ; preds = %23, %5
  %26 = load ptr, ptr %11, align 8
  call void @_ZN8WasmEdge4LLVM5ValueC2EP15LLVMOpaqueValue(ptr noundef nonnull align 8 dereferenceable(8) %0, ptr noundef %26) #12
  ret void
}

; Function Attrs: mustprogress nounwind uwtable
define linkonce_odr hidden void @_ZN8WasmEdge4LLVM7Context8getInt64Em(ptr dead_on_unwind noalias writable sret(%"class.WasmEdge::LLVM::Value") align 8 %0, ptr noundef nonnull align 8 dereferenceable(8) %1, i64 noundef %2) #0 comdat align 2 {
  %4 = alloca ptr, align 8
  %5 = alloca ptr, align 8
  %6 = alloca i64, align 8
  %7 = alloca %"class.WasmEdge::LLVM::Type", align 8
  store ptr %0, ptr %4, align 8
  store ptr %1, ptr %5, align 8
  store i64 %2, ptr %6, align 8
  %8 = load ptr, ptr %5, align 8
  call void @_ZN8WasmEdge4LLVM7Context10getInt64TyEv(ptr dead_on_unwind writable sret(%"class.WasmEdge::LLVM::Type") align 8 %7, ptr noundef nonnull align 8 dereferenceable(8) %8) #12
  %9 = load i64, ptr %6, align 8
  call void @_ZN8WasmEdge4LLVM5Value11getConstIntENS0_4TypeEyb(ptr dead_on_unwind writable sret(%"class.WasmEdge::LLVM::Value") align 8 %0, ptr noundef %7, i64 noundef %9, i1 noundef zeroext false) #12
  ret void
}

; Function Attrs: mustprogress nounwind uwtable
define linkonce_odr hidden void @_ZN8WasmEdge4LLVM5Value12setAlignmentEj(ptr noundef nonnull align 8 dereferenceable(8) %0, i32 noundef %1) #0 comdat align 2 {
  %3 = alloca ptr, align 8
  %4 = alloca i32, align 4
  store ptr %0, ptr %3, align 8
  store i32 %1, ptr %4, align 4
  %5 = load ptr, ptr %3, align 8
  %6 = getelementptr inbounds %"class.WasmEdge::LLVM::Value", ptr %5, i32 0, i32 0
  %7 = load ptr, ptr %6, align 8
  %8 = load i32, ptr %4, align 4
  call void @LLVMSetAlignment(ptr noundef %7, i32 noundef %8)
  ret void
}

; Function Attrs: mustprogress nounwind uwtable
define linkonce_odr hidden void @_ZN8WasmEdge4LLVM7Builder15createAtomicRMWE18LLVMAtomicRMWBinOpNS0_5ValueES3_18LLVMAtomicOrderingb(ptr dead_on_unwind noalias writable sret(%"class.WasmEdge::LLVM::Value") align 8 %0, ptr noundef nonnull align 8 dereferenceable(8) %1, i32 noundef %2, ptr noundef %3, ptr noundef %4, i32 noundef %5, i1 noundef zeroext %6) #0 comdat align 2 {
  %8 = alloca ptr, align 8
  %9 = alloca ptr, align 8
  %10 = alloca i32, align 4
  %11 = alloca ptr, align 8
  %12 = alloca ptr, align 8
  %13 = alloca i32, align 4
  %14 = alloca i8, align 1
  store ptr %0, ptr %8, align 8
  store ptr %1, ptr %9, align 8
  store i32 %2, ptr %10, align 4
  store ptr %3, ptr %11, align 8
  store ptr %4, ptr %12, align 8
  store i32 %5, ptr %13, align 4
  %15 = zext i1 %6 to i8
  store i8 %15, ptr %14, align 1
  %16 = load ptr, ptr %9, align 8
  %17 = getelementptr inbounds %"class.WasmEdge::LLVM::Builder", ptr %16, i32 0, i32 0
  %18 = load ptr, ptr %17, align 8
  %19 = load i32, ptr %10, align 4
  %20 = call noundef nonnull align 8 dereferenceable(8) ptr @_ZN8WasmEdge4LLVM5Value6unwrapEv(ptr noundef nonnull align 8 dereferenceable(8) %3) #12
  %21 = load ptr, ptr %20, align 8
  %22 = call noundef nonnull align 8 dereferenceable(8) ptr @_ZN8WasmEdge4LLVM5Value6unwrapEv(ptr noundef nonnull align 8 dereferenceable(8) %4) #12
  %23 = load ptr, ptr %22, align 8
  %24 = load i32, ptr %13, align 4
  %25 = load i8, ptr %14, align 1
  %26 = trunc i8 %25 to i1
  %27 = zext i1 %26 to i32
  %28 = call ptr @LLVMBuildAtomicRMW(ptr noundef %18, i32 noundef %19, ptr noundef %21, ptr noundef %23, i32 noundef %24, i32 noundef %27)
  call void @_ZN8WasmEdge4LLVM5ValueC2EP15LLVMOpaqueValue(ptr noundef nonnull align 8 dereferenceable(8) %0, ptr noundef %28) #12
  ret void
}

; Function Attrs: mustprogress nounwind uwtable
define linkonce_odr hidden void @_ZN8WasmEdge4LLVM7Builder10createLoadENS0_4TypeENS0_5ValueEbPKc(ptr dead_on_unwind noalias writable sret(%"class.WasmEdge::LLVM::Value") align 8 %0, ptr noundef nonnull align 8 dereferenceable(8) %1, ptr noundef %2, ptr noundef %3, i1 noundef zeroext %4, ptr noundef %5) #0 comdat align 2 {
  %7 = alloca ptr, align 8
  %8 = alloca ptr, align 8
  %9 = alloca ptr, align 8
  %10 = alloca ptr, align 8
  %11 = alloca i8, align 1
  %12 = alloca ptr, align 8
  %13 = alloca ptr, align 8
  store ptr %0, ptr %7, align 8
  store ptr %1, ptr %8, align 8
  store ptr %2, ptr %9, align 8
  store ptr %3, ptr %10, align 8
  %14 = zext i1 %4 to i8
  store i8 %14, ptr %11, align 1
  store ptr %5, ptr %12, align 8
  %15 = load ptr, ptr %8, align 8
  %16 = getelementptr inbounds %"class.WasmEdge::LLVM::Builder", ptr %15, i32 0, i32 0
  %17 = load ptr, ptr %16, align 8
  %18 = call noundef nonnull align 8 dereferenceable(8) ptr @_ZN8WasmEdge4LLVM4Type6unwrapEv(ptr noundef nonnull align 8 dereferenceable(8) %2) #12
  %19 = load ptr, ptr %18, align 8
  %20 = call noundef nonnull align 8 dereferenceable(8) ptr @_ZN8WasmEdge4LLVM5Value6unwrapEv(ptr noundef nonnull align 8 dereferenceable(8) %3) #12
  %21 = load ptr, ptr %20, align 8
  %22 = load ptr, ptr %12, align 8
  %23 = call ptr @LLVMBuildLoad2(ptr noundef %17, ptr noundef %19, ptr noundef %21, ptr noundef %22)
  store ptr %23, ptr %13, align 8
  %24 = load i8, ptr %11, align 1
  %25 = trunc i8 %24 to i1
  br i1 %25, label %26, label %28

26:                                               ; preds = %6
  %27 = load ptr, ptr %13, align 8
  call void @LLVMSetVolatile(ptr noundef %27, i32 noundef 1)
  br label %28

28:                                               ; preds = %26, %6
  %29 = load ptr, ptr %13, align 8
  call void @_ZN8WasmEdge4LLVM5ValueC2EP15LLVMOpaqueValue(ptr noundef nonnull align 8 dereferenceable(8) %0, ptr noundef %29) #12
  ret void
}

; Function Attrs: mustprogress nounwind uwtable
define linkonce_odr hidden void @_ZN8WasmEdge4LLVM8Compiler14CompileContext13getInstrCountERNS0_7BuilderENS0_5ValueE(ptr dead_on_unwind noalias writable sret(%"class.WasmEdge::LLVM::Value") align 8 %0, ptr noundef nonnull align 8 dereferenceable(400) %1, ptr noundef nonnull align 8 dereferenceable(8) %2, ptr noundef %3) #0 comdat align 2 {
  %5 = alloca ptr, align 8
  %6 = alloca ptr, align 8
  %7 = alloca ptr, align 8
  %8 = alloca ptr, align 8
  %9 = alloca %"class.WasmEdge::LLVM::Value", align 8
  store ptr %0, ptr %5, align 8
  store ptr %1, ptr %6, align 8
  store ptr %2, ptr %7, align 8
  store ptr %3, ptr %8, align 8
  %10 = load ptr, ptr %7, align 8
  call void @llvm.memcpy.p0.p0.i64(ptr align 8 %9, ptr align 8 %3, i64 8, i1 false)
  call void @_ZN8WasmEdge4LLVM7Builder18createExtractValueENS0_5ValueEjPKc(ptr dead_on_unwind writable sret(%"class.WasmEdge::LLVM::Value") align 8 %0, ptr noundef nonnull align 8 dereferenceable(8) %10, ptr noundef %9, i32 noundef 2, ptr noundef @.str.11) #12
  ret void
}

; Function Attrs: mustprogress nounwind uwtable
define linkonce_odr hidden noundef zeroext i1 @_ZNK8WasmEdge4LLVM5ValuecvbEv(ptr noundef nonnull align 8 dereferenceable(8) %0) #0 comdat align 2 {
  %2 = alloca ptr, align 8
  store ptr %0, ptr %2, align 8
  %3 = load ptr, ptr %2, align 8
  %4 = getelementptr inbounds %"class.WasmEdge::LLVM::Value", ptr %3, i32 0, i32 0
  %5 = load ptr, ptr %4, align 8
  %6 = icmp ne ptr %5, null
  ret i1 %6
}

; Function Attrs: mustprogress nounwind uwtable
define internal void @_ZN12_GLOBAL__N_116FunctionCompiler16updateInstrCountEv(ptr noundef nonnull align 8 dereferenceable(200) %0) #0 align 2 {
  %2 = alloca ptr, align 8
  %3 = alloca %"class.WasmEdge::LLVM::Value", align 8
  %4 = alloca %"class.WasmEdge::LLVM::Value", align 8
  %5 = alloca %"class.WasmEdge::LLVM::Value", align 8
  %6 = alloca %"class.WasmEdge::LLVM::Value", align 8
  %7 = alloca %"class.WasmEdge::LLVM::Type", align 8
  %8 = alloca %"class.WasmEdge::LLVM::Value", align 8
  %9 = alloca %"class.WasmEdge::LLVM::Value", align 8
  %10 = alloca %"class.WasmEdge::LLVM::Value", align 8
  %11 = alloca %"class.WasmEdge::LLVM::Value", align 8
  store ptr %0, ptr %2, align 8
  %12 = load ptr, ptr %2, align 8
  %13 = getelementptr inbounds %"class.(anonymous namespace)::FunctionCompiler", ptr %12, i32 0, i32 4
  %14 = call noundef zeroext i1 @_ZNK8WasmEdge4LLVM5ValuecvbEv(ptr noundef nonnull align 8 dereferenceable(8) %13) #12
  br i1 %14, label %15, label %29

15:                                               ; preds = %1
  %16 = getelementptr inbounds %"class.(anonymous namespace)::FunctionCompiler", ptr %12, i32 0, i32 12
  %17 = getelementptr inbounds %"class.(anonymous namespace)::FunctionCompiler", ptr %12, i32 0, i32 0
  %18 = load ptr, ptr %17, align 8
  %19 = getelementptr inbounds %"class.(anonymous namespace)::FunctionCompiler", ptr %12, i32 0, i32 12
  %20 = getelementptr inbounds %"class.(anonymous namespace)::FunctionCompiler", ptr %12, i32 0, i32 11
  call void @llvm.memcpy.p0.p0.i64(ptr align 8 %5, ptr align 8 %20, i64 8, i1 false)
  call void @_ZN8WasmEdge4LLVM8Compiler14CompileContext13getInstrCountERNS0_7BuilderENS0_5ValueE(ptr dead_on_unwind writable sret(%"class.WasmEdge::LLVM::Value") align 8 %4, ptr noundef nonnull align 8 dereferenceable(400) %18, ptr noundef nonnull align 8 dereferenceable(8) %19, ptr noundef %5) #12
  %21 = getelementptr inbounds %"class.(anonymous namespace)::FunctionCompiler", ptr %12, i32 0, i32 12
  %22 = getelementptr inbounds %"class.(anonymous namespace)::FunctionCompiler", ptr %12, i32 0, i32 0
  %23 = load ptr, ptr %22, align 8
  %24 = getelementptr inbounds %"struct.WasmEdge::LLVM::Compiler::CompileContext", ptr %23, i32 0, i32 14
  call void @llvm.memcpy.p0.p0.i64(ptr align 8 %7, ptr align 8 %24, i64 8, i1 false)
  %25 = getelementptr inbounds %"class.(anonymous namespace)::FunctionCompiler", ptr %12, i32 0, i32 4
  call void @llvm.memcpy.p0.p0.i64(ptr align 8 %8, ptr align 8 %25, i64 8, i1 false)
  call void @_ZN8WasmEdge4LLVM7Builder10createLoadENS0_4TypeENS0_5ValueEbPKc(ptr dead_on_unwind writable sret(%"class.WasmEdge::LLVM::Value") align 8 %6, ptr noundef nonnull align 8 dereferenceable(8) %21, ptr noundef %7, ptr noundef %8, i1 noundef zeroext false, ptr noundef @.str.11) #12
  call void @_ZN8WasmEdge4LLVM7Builder15createAtomicRMWE18LLVMAtomicRMWBinOpNS0_5ValueES3_18LLVMAtomicOrderingb(ptr dead_on_unwind writable sret(%"class.WasmEdge::LLVM::Value") align 8 %3, ptr noundef nonnull align 8 dereferenceable(8) %16, i32 noundef 1, ptr noundef %4, ptr noundef %6, i32 noundef 2, i1 noundef zeroext false) #12
  call void @_ZN8WasmEdge4LLVM5Value12setAlignmentEj(ptr noundef nonnull align 8 dereferenceable(8) %3, i32 noundef 8) #12
  %26 = getelementptr inbounds %"class.(anonymous namespace)::FunctionCompiler", ptr %12, i32 0, i32 12
  %27 = getelementptr inbounds %"class.(anonymous namespace)::FunctionCompiler", ptr %12, i32 0, i32 1
  call void @_ZN8WasmEdge4LLVM7Context8getInt64Em(ptr dead_on_unwind writable sret(%"class.WasmEdge::LLVM::Value") align 8 %9, ptr noundef nonnull align 8 dereferenceable(8) %27, i64 noundef 0) #12
  %28 = getelementptr inbounds %"class.(anonymous namespace)::FunctionCompiler", ptr %12, i32 0, i32 4
  call void @llvm.memcpy.p0.p0.i64(ptr align 8 %10, ptr align 8 %28, i64 8, i1 false)
  call void @_ZN8WasmEdge4LLVM7Builder11createStoreENS0_5ValueES2_b(ptr dead_on_unwind writable sret(%"class.WasmEdge::LLVM::Value") align 8 %11, ptr noundef nonnull align 8 dereferenceable(8) %26, ptr noundef %9, ptr noundef %10, i1 noundef zeroext false) #12
  br label %29

29:                                               ; preds = %15, %1
  ret void
}