; Function Attrs: mustprogress nounwind uwtable
define internal fastcc void @_ZN12_GLOBAL__N_116FunctionCompiler16updateInstrCountEv(ptr noundef nonnull readonly align 8 captures(none) dereferenceable(200) %0) unnamed_addr #0 align 2 {
  %2 = getelementptr inbounds nuw i8, ptr %0, i64 64
  %3 = load ptr, ptr %2, align 8
  %.not = icmp eq ptr %3, null
  br i1 %.not, label %29, label %4

4:                                                ; preds = %1
  %5 = getelementptr inbounds nuw i8, ptr %0, i64 192
  %6 = getelementptr inbounds nuw i8, ptr %0, i64 184
  %7 = load i64, ptr %6, align 8
  %8 = inttoptr i64 %7 to ptr
  %9 = load ptr, ptr %5, align 8, !noalias !832
  %10 = tail call ptr @LLVMBuildExtractValue(ptr noundef %9, ptr noundef %8, i32 noundef 2, ptr noundef nonnull @.str.11) #16, !noalias !832
  %11 = load ptr, ptr %0, align 8
  %12 = getelementptr inbounds nuw i8, ptr %11, i64 112
  %13 = load i64, ptr %12, align 8
  %14 = inttoptr i64 %13 to ptr
  %15 = load i64, ptr %2, align 8
  %16 = inttoptr i64 %15 to ptr
  %17 = load ptr, ptr %5, align 8, !noalias !837
  %18 = tail call ptr @LLVMBuildLoad2(ptr noundef %17, ptr noundef %14, ptr noundef %16, ptr noundef nonnull @.str.11) #16, !noalias !837
  %19 = load ptr, ptr %5, align 8, !noalias !840
  %20 = tail call ptr @LLVMBuildAtomicRMW(ptr noundef %19, i32 noundef 1, ptr noundef %10, ptr noundef %18, i32 noundef 2, i32 noundef 0) #16, !noalias !840
  tail call void @LLVMSetAlignment(ptr noundef %20, i32 noundef 8) #16
  %21 = getelementptr inbounds nuw i8, ptr %0, i64 8
  %22 = load ptr, ptr %21, align 8, !noalias !843
  %23 = tail call ptr @LLVMInt64TypeInContext(ptr noundef %22) #16, !noalias !843
  %24 = tail call ptr @LLVMConstInt(ptr noundef %23, i64 noundef 0, i32 noundef 0) #16, !noalias !848
  %25 = load i64, ptr %2, align 8
  %26 = inttoptr i64 %25 to ptr
  %27 = load ptr, ptr %5, align 8, !noalias !851
  %28 = tail call ptr @LLVMBuildStore(ptr noundef %27, ptr noundef %24, ptr noundef %26) #16, !noalias !851
  br label %29

29:                                               ; preds = %4, %1
  ret void
}